ARM GAS  /tmp/ccaX3oBO.s 			page 1


   1              		.cpu cortex-m4
   2              		.eabi_attribute 27, 1
   3              		.eabi_attribute 28, 1
   4              		.eabi_attribute 20, 1
   5              		.eabi_attribute 21, 1
   6              		.eabi_attribute 23, 3
   7              		.eabi_attribute 24, 1
   8              		.eabi_attribute 25, 1
   9              		.eabi_attribute 26, 1
  10              		.eabi_attribute 30, 1
  11              		.eabi_attribute 34, 1
  12              		.eabi_attribute 18, 4
  13              		.file	"gpio.c"
  14              		.text
  15              	.Ltext0:
  16              		.cfi_sections	.debug_frame
  17              		.section	.text.MX_GPIO_Init,"ax",%progbits
  18              		.align	1
  19              		.global	MX_GPIO_Init
  20              		.arch armv7e-m
  21              		.syntax unified
  22              		.thumb
  23              		.thumb_func
  24              		.fpu fpv4-sp-d16
  26              	MX_GPIO_Init:
  27              	.LFB132:
  28              		.file 1 "Core/Src/gpio.c"
   1:Core/Src/gpio.c **** /* USER CODE BEGIN Header */
   2:Core/Src/gpio.c **** /**
   3:Core/Src/gpio.c ****   ******************************************************************************
   4:Core/Src/gpio.c ****   * @file    gpio.c
   5:Core/Src/gpio.c ****   * @brief   This file provides code for the configuration
   6:Core/Src/gpio.c ****   *          of all used GPIO pins.
   7:Core/Src/gpio.c ****   ******************************************************************************
   8:Core/Src/gpio.c ****   * @attention
   9:Core/Src/gpio.c ****   *
  10:Core/Src/gpio.c ****   * Copyright (c) 2024 STMicroelectronics.
  11:Core/Src/gpio.c ****   * All rights reserved.
  12:Core/Src/gpio.c ****   *
  13:Core/Src/gpio.c ****   * This software is licensed under terms that can be found in the LICENSE file
  14:Core/Src/gpio.c ****   * in the root directory of this software component.
  15:Core/Src/gpio.c ****   * If no LICENSE file comes with this software, it is provided AS-IS.
  16:Core/Src/gpio.c ****   *
  17:Core/Src/gpio.c ****   ******************************************************************************
  18:Core/Src/gpio.c ****   */
  19:Core/Src/gpio.c **** /* USER CODE END Header */
  20:Core/Src/gpio.c **** 
  21:Core/Src/gpio.c **** /* Includes ------------------------------------------------------------------*/
  22:Core/Src/gpio.c **** #include "gpio.h"
  23:Core/Src/gpio.c **** 
  24:Core/Src/gpio.c **** /* USER CODE BEGIN 0 */
  25:Core/Src/gpio.c **** 
  26:Core/Src/gpio.c **** /* USER CODE END 0 */
  27:Core/Src/gpio.c **** 
  28:Core/Src/gpio.c **** /*----------------------------------------------------------------------------*/
  29:Core/Src/gpio.c **** /* Configure GPIO                                                             */
  30:Core/Src/gpio.c **** /*----------------------------------------------------------------------------*/
ARM GAS  /tmp/ccaX3oBO.s 			page 2


  31:Core/Src/gpio.c **** /* USER CODE BEGIN 1 */
  32:Core/Src/gpio.c **** 
  33:Core/Src/gpio.c **** /* USER CODE END 1 */
  34:Core/Src/gpio.c **** 
  35:Core/Src/gpio.c **** /** Configure pins as
  36:Core/Src/gpio.c ****         * Analog
  37:Core/Src/gpio.c ****         * Input
  38:Core/Src/gpio.c ****         * Output
  39:Core/Src/gpio.c ****         * EVENT_OUT
  40:Core/Src/gpio.c ****         * EXTI
  41:Core/Src/gpio.c ****      PA2   ------> USART2_TX
  42:Core/Src/gpio.c ****      PA3   ------> USART2_RX
  43:Core/Src/gpio.c **** */
  44:Core/Src/gpio.c **** void MX_GPIO_Init(void)
  45:Core/Src/gpio.c **** {
  29              		.loc 1 45 1 view -0
  30              		.cfi_startproc
  31              		@ args = 0, pretend = 0, frame = 40
  32              		@ frame_needed = 0, uses_anonymous_args = 0
  33 0000 10B5     		push	{r4, lr}
  34              	.LCFI0:
  35              		.cfi_def_cfa_offset 8
  36              		.cfi_offset 4, -8
  37              		.cfi_offset 14, -4
  38 0002 8AB0     		sub	sp, sp, #40
  39              	.LCFI1:
  40              		.cfi_def_cfa_offset 48
  46:Core/Src/gpio.c **** 
  47:Core/Src/gpio.c ****   GPIO_InitTypeDef GPIO_InitStruct = {0};
  41              		.loc 1 47 3 view .LVU1
  42              		.loc 1 47 20 is_stmt 0 view .LVU2
  43 0004 0024     		movs	r4, #0
  44 0006 0594     		str	r4, [sp, #20]
  45 0008 0694     		str	r4, [sp, #24]
  46 000a 0794     		str	r4, [sp, #28]
  47 000c 0894     		str	r4, [sp, #32]
  48 000e 0994     		str	r4, [sp, #36]
  48:Core/Src/gpio.c **** 
  49:Core/Src/gpio.c ****   /* GPIO Ports Clock Enable */
  50:Core/Src/gpio.c ****   __HAL_RCC_GPIOC_CLK_ENABLE();
  49              		.loc 1 50 3 is_stmt 1 view .LVU3
  50              	.LBB2:
  51              		.loc 1 50 3 view .LVU4
  52              		.loc 1 50 3 view .LVU5
  53 0010 284B     		ldr	r3, .L3
  54 0012 DA6C     		ldr	r2, [r3, #76]
  55 0014 42F00402 		orr	r2, r2, #4
  56 0018 DA64     		str	r2, [r3, #76]
  57              		.loc 1 50 3 view .LVU6
  58 001a DA6C     		ldr	r2, [r3, #76]
  59 001c 02F00402 		and	r2, r2, #4
  60 0020 0192     		str	r2, [sp, #4]
  61              		.loc 1 50 3 view .LVU7
  62 0022 019A     		ldr	r2, [sp, #4]
  63              	.LBE2:
  64              		.loc 1 50 3 view .LVU8
  51:Core/Src/gpio.c ****   __HAL_RCC_GPIOH_CLK_ENABLE();
ARM GAS  /tmp/ccaX3oBO.s 			page 3


  65              		.loc 1 51 3 view .LVU9
  66              	.LBB3:
  67              		.loc 1 51 3 view .LVU10
  68              		.loc 1 51 3 view .LVU11
  69 0024 DA6C     		ldr	r2, [r3, #76]
  70 0026 42F08002 		orr	r2, r2, #128
  71 002a DA64     		str	r2, [r3, #76]
  72              		.loc 1 51 3 view .LVU12
  73 002c DA6C     		ldr	r2, [r3, #76]
  74 002e 02F08002 		and	r2, r2, #128
  75 0032 0292     		str	r2, [sp, #8]
  76              		.loc 1 51 3 view .LVU13
  77 0034 029A     		ldr	r2, [sp, #8]
  78              	.LBE3:
  79              		.loc 1 51 3 view .LVU14
  52:Core/Src/gpio.c ****   __HAL_RCC_GPIOA_CLK_ENABLE();
  80              		.loc 1 52 3 view .LVU15
  81              	.LBB4:
  82              		.loc 1 52 3 view .LVU16
  83              		.loc 1 52 3 view .LVU17
  84 0036 DA6C     		ldr	r2, [r3, #76]
  85 0038 42F00102 		orr	r2, r2, #1
  86 003c DA64     		str	r2, [r3, #76]
  87              		.loc 1 52 3 view .LVU18
  88 003e DA6C     		ldr	r2, [r3, #76]
  89 0040 02F00102 		and	r2, r2, #1
  90 0044 0392     		str	r2, [sp, #12]
  91              		.loc 1 52 3 view .LVU19
  92 0046 039A     		ldr	r2, [sp, #12]
  93              	.LBE4:
  94              		.loc 1 52 3 view .LVU20
  53:Core/Src/gpio.c ****   __HAL_RCC_GPIOB_CLK_ENABLE();
  95              		.loc 1 53 3 view .LVU21
  96              	.LBB5:
  97              		.loc 1 53 3 view .LVU22
  98              		.loc 1 53 3 view .LVU23
  99 0048 DA6C     		ldr	r2, [r3, #76]
 100 004a 42F00202 		orr	r2, r2, #2
 101 004e DA64     		str	r2, [r3, #76]
 102              		.loc 1 53 3 view .LVU24
 103 0050 DB6C     		ldr	r3, [r3, #76]
 104 0052 03F00203 		and	r3, r3, #2
 105 0056 0493     		str	r3, [sp, #16]
 106              		.loc 1 53 3 view .LVU25
 107 0058 049B     		ldr	r3, [sp, #16]
 108              	.LBE5:
 109              		.loc 1 53 3 view .LVU26
  54:Core/Src/gpio.c **** 
  55:Core/Src/gpio.c ****   /*Configure GPIO pin Output Level */
  56:Core/Src/gpio.c ****   HAL_GPIO_WritePin(LD2_GPIO_Port, LD2_Pin, GPIO_PIN_RESET);
 110              		.loc 1 56 3 view .LVU27
 111 005a 2246     		mov	r2, r4
 112 005c 2021     		movs	r1, #32
 113 005e 4FF09040 		mov	r0, #1207959552
 114 0062 FFF7FEFF 		bl	HAL_GPIO_WritePin
 115              	.LVL0:
  57:Core/Src/gpio.c **** 
ARM GAS  /tmp/ccaX3oBO.s 			page 4


  58:Core/Src/gpio.c ****   /*Configure GPIO pin : PtPin */
  59:Core/Src/gpio.c ****   GPIO_InitStruct.Pin = B1_Pin;
 116              		.loc 1 59 3 view .LVU28
 117              		.loc 1 59 23 is_stmt 0 view .LVU29
 118 0066 4FF40053 		mov	r3, #8192
 119 006a 0593     		str	r3, [sp, #20]
  60:Core/Src/gpio.c ****   GPIO_InitStruct.Mode = GPIO_MODE_IT_FALLING;
 120              		.loc 1 60 3 is_stmt 1 view .LVU30
 121              		.loc 1 60 24 is_stmt 0 view .LVU31
 122 006c 4FF40413 		mov	r3, #2162688
 123 0070 0693     		str	r3, [sp, #24]
  61:Core/Src/gpio.c ****   GPIO_InitStruct.Pull = GPIO_NOPULL;
 124              		.loc 1 61 3 is_stmt 1 view .LVU32
 125              		.loc 1 61 24 is_stmt 0 view .LVU33
 126 0072 0794     		str	r4, [sp, #28]
  62:Core/Src/gpio.c ****   HAL_GPIO_Init(B1_GPIO_Port, &GPIO_InitStruct);
 127              		.loc 1 62 3 is_stmt 1 view .LVU34
 128 0074 05A9     		add	r1, sp, #20
 129 0076 1048     		ldr	r0, .L3+4
 130 0078 FFF7FEFF 		bl	HAL_GPIO_Init
 131              	.LVL1:
  63:Core/Src/gpio.c **** 
  64:Core/Src/gpio.c ****   /*Configure GPIO pins : PAPin PAPin */
  65:Core/Src/gpio.c ****   GPIO_InitStruct.Pin = USART_TX_Pin|USART_RX_Pin;
 132              		.loc 1 65 3 view .LVU35
 133              		.loc 1 65 23 is_stmt 0 view .LVU36
 134 007c 0C23     		movs	r3, #12
 135 007e 0593     		str	r3, [sp, #20]
  66:Core/Src/gpio.c ****   GPIO_InitStruct.Mode = GPIO_MODE_AF_PP;
 136              		.loc 1 66 3 is_stmt 1 view .LVU37
 137              		.loc 1 66 24 is_stmt 0 view .LVU38
 138 0080 0223     		movs	r3, #2
 139 0082 0693     		str	r3, [sp, #24]
  67:Core/Src/gpio.c ****   GPIO_InitStruct.Pull = GPIO_NOPULL;
 140              		.loc 1 67 3 is_stmt 1 view .LVU39
 141              		.loc 1 67 24 is_stmt 0 view .LVU40
 142 0084 0794     		str	r4, [sp, #28]
  68:Core/Src/gpio.c ****   GPIO_InitStruct.Speed = GPIO_SPEED_FREQ_VERY_HIGH;
 143              		.loc 1 68 3 is_stmt 1 view .LVU41
 144              		.loc 1 68 25 is_stmt 0 view .LVU42
 145 0086 0323     		movs	r3, #3
 146 0088 0893     		str	r3, [sp, #32]
  69:Core/Src/gpio.c ****   GPIO_InitStruct.Alternate = GPIO_AF7_USART2;
 147              		.loc 1 69 3 is_stmt 1 view .LVU43
 148              		.loc 1 69 29 is_stmt 0 view .LVU44
 149 008a 0723     		movs	r3, #7
 150 008c 0993     		str	r3, [sp, #36]
  70:Core/Src/gpio.c ****   HAL_GPIO_Init(GPIOA, &GPIO_InitStruct);
 151              		.loc 1 70 3 is_stmt 1 view .LVU45
 152 008e 05A9     		add	r1, sp, #20
 153 0090 4FF09040 		mov	r0, #1207959552
 154 0094 FFF7FEFF 		bl	HAL_GPIO_Init
 155              	.LVL2:
  71:Core/Src/gpio.c **** 
  72:Core/Src/gpio.c ****   /*Configure GPIO pin : PtPin */
  73:Core/Src/gpio.c ****   GPIO_InitStruct.Pin = LD2_Pin;
 156              		.loc 1 73 3 view .LVU46
ARM GAS  /tmp/ccaX3oBO.s 			page 5


 157              		.loc 1 73 23 is_stmt 0 view .LVU47
 158 0098 2023     		movs	r3, #32
 159 009a 0593     		str	r3, [sp, #20]
  74:Core/Src/gpio.c ****   GPIO_InitStruct.Mode = GPIO_MODE_OUTPUT_PP;
 160              		.loc 1 74 3 is_stmt 1 view .LVU48
 161              		.loc 1 74 24 is_stmt 0 view .LVU49
 162 009c 0123     		movs	r3, #1
 163 009e 0693     		str	r3, [sp, #24]
  75:Core/Src/gpio.c ****   GPIO_InitStruct.Pull = GPIO_NOPULL;
 164              		.loc 1 75 3 is_stmt 1 view .LVU50
 165              		.loc 1 75 24 is_stmt 0 view .LVU51
 166 00a0 0794     		str	r4, [sp, #28]
  76:Core/Src/gpio.c ****   GPIO_InitStruct.Speed = GPIO_SPEED_FREQ_LOW;
 167              		.loc 1 76 3 is_stmt 1 view .LVU52
 168              		.loc 1 76 25 is_stmt 0 view .LVU53
 169 00a2 0894     		str	r4, [sp, #32]
  77:Core/Src/gpio.c ****   HAL_GPIO_Init(LD2_GPIO_Port, &GPIO_InitStruct);
 170              		.loc 1 77 3 is_stmt 1 view .LVU54
 171 00a4 05A9     		add	r1, sp, #20
 172 00a6 4FF09040 		mov	r0, #1207959552
 173 00aa FFF7FEFF 		bl	HAL_GPIO_Init
 174              	.LVL3:
  78:Core/Src/gpio.c **** 
  79:Core/Src/gpio.c **** }
 175              		.loc 1 79 1 is_stmt 0 view .LVU55
 176 00ae 0AB0     		add	sp, sp, #40
 177              	.LCFI2:
 178              		.cfi_def_cfa_offset 8
 179              		@ sp needed
 180 00b0 10BD     		pop	{r4, pc}
 181              	.L4:
 182 00b2 00BF     		.align	2
 183              	.L3:
 184 00b4 00100240 		.word	1073876992
 185 00b8 00080048 		.word	1207961600
 186              		.cfi_endproc
 187              	.LFE132:
 189              		.text
 190              	.Letext0:
 191              		.file 2 "/usr/lib/gcc/arm-none-eabi/10.3.1/include/stdint.h"
 192              		.file 3 "Drivers/CMSIS/Device/ST/STM32L4xx/Include/stm32l476xx.h"
 193              		.file 4 "Drivers/STM32L4xx_HAL_Driver/Inc/stm32l4xx_hal_gpio.h"
ARM GAS  /tmp/ccaX3oBO.s 			page 6

